target datalayout = "e-m:e-p270:32:32-p271:32:32-p272:64:64-i64:64-i128:128-f80:128-n8:16:32:64-S128"
target triple = "x86_64-pc-linux-gnu"

%"class.icu_77::number::Precision" = type <{ i32, [4 x i8], %"union.icu_77::number::Precision::PrecisionUnion", i32, [4 x i8] }>
%"union.icu_77::number::Precision::PrecisionUnion" = type { %"struct.icu_77::number::Precision::PrecisionUnion::IncrementSettings" }
%"struct.icu_77::number::Precision::PrecisionUnion::IncrementSettings" = type { i64, i16, i16 }
%"class.icu_77::number::FractionPrecision" = type { %"class.icu_77::number::Precision.base", [4 x i8] }
%"class.icu_77::number::Precision.base" = type <{ i32, [4 x i8], %"union.icu_77::number::Precision::PrecisionUnion", i32 }>
%"class.icu_77::number::CurrencyPrecision" = type { %"class.icu_77::number::Precision.base", [4 x i8] }

; Function Attrs: mustprogress uwtable
define void @_ZN6icu_776number4impl14stem_to_object9precisionENS1_8skeleton8StemEnumE(ptr dead_on_unwind noalias writable sret(%"class.icu_77::number::Precision") align 8 %0, i32 noundef %1) #1 {
  %3 = alloca i32, align 4
  %4 = alloca %"class.icu_77::number::FractionPrecision", align 8
  %5 = alloca %"class.icu_77::number::CurrencyPrecision", align 8
  %6 = alloca %"class.icu_77::number::CurrencyPrecision", align 8
  store i32 %1, ptr %3, align 4, !tbaa !23
  %7 = load i32, ptr %3, align 4, !tbaa !23
  switch i32 %7, label %12 [
    i32 9, label %8
    i32 10, label %9
    i32 11, label %10
    i32 12, label %11
  ]

8:                                                ; preds = %2
  call void @llvm.lifetime.start.p0(i64 32, ptr %4) #14
  call void @_ZN6icu_776number9Precision7integerEv(ptr dead_on_unwind writable sret(%"class.icu_77::number::FractionPrecision") align 8 %4)
  call void @llvm.memcpy.p0.p0.i64(ptr align 8 %0, ptr align 8 %4, i64 32, i1 false)
  call void @llvm.lifetime.end.p0(i64 32, ptr %4) #14
  br label %13

9:                                                ; preds = %2
  call void @_ZN6icu_776number9Precision9unlimitedEv(ptr dead_on_unwind writable sret(%"class.icu_77::number::Precision") align 8 %0)
  br label %13

10:                                               ; preds = %2
  call void @llvm.lifetime.start.p0(i64 32, ptr %5) #14
  call void @_ZN6icu_776number9Precision8currencyE14UCurrencyUsage(ptr dead_on_unwind writable sret(%"class.icu_77::number::CurrencyPrecision") align 8 %5, i32 noundef 0)
  call void @llvm.memcpy.p0.p0.i64(ptr align 8 %0, ptr align 8 %5, i64 32, i1 false)
  call void @llvm.lifetime.end.p0(i64 32, ptr %5) #14
  br label %13

11:                                               ; preds = %2
  call void @llvm.lifetime.start.p0(i64 32, ptr %6) #14
  call void @_ZN6icu_776number9Precision8currencyE14UCurrencyUsage(ptr dead_on_unwind writable sret(%"class.icu_77::number::CurrencyPrecision") align 8 %6, i32 noundef 1)
  call void @llvm.memcpy.p0.p0.i64(ptr align 8 %0, ptr align 8 %6, i64 32, i1 false)
  call void @llvm.lifetime.end.p0(i64 32, ptr %6) #14
  br label %13

12:                                               ; preds = %2
  call void @abort() #16
  unreachable

13:                                               ; preds = %11, %10, %9, %8
  ret void
}