; Function Attrs: mustprogress uwtable
define void @_ZN6icu_776number4impl14stem_to_object9precisionENS1_8skeleton8StemEnumE(ptr dead_on_unwind noalias writable sret(%"class.icu_77::number::Precision") align 8 %0, i32 noundef %1) local_unnamed_addr #1 {
  switch i32 %1, label %7 [
    i32 9, label %3
    i32 10, label %4
    i32 11, label %5
    i32 12, label %6
  ]

3:                                                ; preds = %2
  tail call void @_ZN6icu_776number9Precision7integerEv(ptr dead_on_unwind nonnull writable sret(%"class.icu_77::number::FractionPrecision") align 8 %0)
  br label %8

4:                                                ; preds = %2
  tail call void @_ZN6icu_776number9Precision9unlimitedEv(ptr dead_on_unwind writable sret(%"class.icu_77::number::Precision") align 8 %0)
  br label %8

5:                                                ; preds = %2
  tail call void @_ZN6icu_776number9Precision8currencyE14UCurrencyUsage(ptr dead_on_unwind nonnull writable sret(%"class.icu_77::number::CurrencyPrecision") align 8 %0, i32 noundef 0)
  br label %8

6:                                                ; preds = %2
  tail call void @_ZN6icu_776number9Precision8currencyE14UCurrencyUsage(ptr dead_on_unwind nonnull writable sret(%"class.icu_77::number::CurrencyPrecision") align 8 %0, i32 noundef 1)
  br label %8

7:                                                ; preds = %2
  tail call void @abort() #20
  unreachable

8:                                                ; preds = %6, %5, %4, %3
  ret void
}